; Function Attrs: mustprogress uwtable
define hidden void @_ZN19OpenColorIO_v2_4dev12XmlFormatter13writeEmptyTagERKNSt7__cxx1112basic_stringIcSt11char_traitsIcESaIcEEERKSt6vectorISt4pairIS6_S6_ESaISB_EE(ptr nocapture noundef nonnull readonly align 8 dereferenceable(16) %this, ptr noundef nonnull align 8 dereferenceable(32) %tagName, ptr nocapture noundef nonnull readonly align 8 dereferenceable(24) %attributes) local_unnamed_addr #3 align 2 personality ptr @__gxx_personality_v0 {
entry:
  %ref.tmp.i = alloca %"class.std::__cxx11::basic_string", align 8
  %m_indentLevel.i = getelementptr inbounds i8, ptr %this, i64 8
  %0 = load i32, ptr %m_indentLevel.i, align 8
  %cmp2.i = icmp sgt i32 %0, 0
  br i1 %cmp2.i, label %for.body.i, label %_ZN19OpenColorIO_v2_4dev12XmlFormatter11writeIndentEv.exit

for.body.i:                                       ; preds = %entry, %for.body.i
  %i.03.i = phi i32 [ %inc.i, %for.body.i ], [ 0, %entry ]
  %1 = load ptr, ptr %this, align 8
  %call.i = tail call noundef nonnull align 8 dereferenceable(8) ptr @_ZStlsISt11char_traitsIcEERSt13basic_ostreamIcT_ES5_PKc(ptr noundef nonnull align 8 dereferenceable(8) %1, ptr noundef nonnull @.str.9)
  %inc.i = add nuw nsw i32 %i.03.i, 1
  %2 = load i32, ptr %m_indentLevel.i, align 8
  %cmp.i = icmp slt i32 %inc.i, %2
  br i1 %cmp.i, label %for.body.i, label %_ZN19OpenColorIO_v2_4dev12XmlFormatter11writeIndentEv.exit, !llvm.loop !4

_ZN19OpenColorIO_v2_4dev12XmlFormatter11writeIndentEv.exit: ; preds = %for.body.i, %entry
  %3 = load ptr, ptr %this, align 8
  %call = tail call noundef nonnull align 8 dereferenceable(8) ptr @_ZStlsISt11char_traitsIcEERSt13basic_ostreamIcT_ES5_PKc(ptr noundef nonnull align 8 dereferenceable(8) %3, ptr noundef nonnull @.str)
  %call2 = tail call noundef nonnull align 8 dereferenceable(8) ptr @_ZStlsIcSt11char_traitsIcESaIcEERSt13basic_ostreamIT_T0_ES7_RKNSt7__cxx1112basic_stringIS4_S5_T1_EE(ptr noundef nonnull align 8 dereferenceable(8) %call, ptr noundef nonnull align 8 dereferenceable(32) %tagName)
  %4 = load ptr, ptr %attributes, align 8
  %_M_finish.i = getelementptr inbounds i8, ptr %attributes, i64 8
  %5 = load ptr, ptr %_M_finish.i, align 8
  %cmp.i2.not7 = icmp eq ptr %4, %5
  br i1 %cmp.i2.not7, label %for.end, label %for.body

for.body:                                         ; preds = %_ZN19OpenColorIO_v2_4dev12XmlFormatter11writeIndentEv.exit, %_ZN19OpenColorIO_v2_4dev12XmlFormatter11writeStringERKNSt7__cxx1112basic_stringIcSt11char_traitsIcESaIcEEE.exit
  %it.sroa.0.08 = phi ptr [ %incdec.ptr.i, %_ZN19OpenColorIO_v2_4dev12XmlFormatter11writeStringERKNSt7__cxx1112basic_stringIcSt11char_traitsIcESaIcEEE.exit ], [ %4, %_ZN19OpenColorIO_v2_4dev12XmlFormatter11writeIndentEv.exit ]
  %6 = load ptr, ptr %this, align 8
  %call8 = call noundef nonnull align 8 dereferenceable(8) ptr @_ZStlsISt11char_traitsIcEERSt13basic_ostreamIcT_ES5_PKc(ptr noundef nonnull align 8 dereferenceable(8) %6, ptr noundef nonnull @.str.1)
  %call10 = call noundef nonnull align 8 dereferenceable(8) ptr @_ZStlsIcSt11char_traitsIcESaIcEERSt13basic_ostreamIT_T0_ES7_RKNSt7__cxx1112basic_stringIS4_S5_T1_EE(ptr noundef nonnull align 8 dereferenceable(8) %call8, ptr noundef nonnull align 8 dereferenceable(32) %it.sroa.0.08)
  %call11 = call noundef nonnull align 8 dereferenceable(8) ptr @_ZStlsISt11char_traitsIcEERSt13basic_ostreamIcT_ES5_PKc(ptr noundef nonnull align 8 dereferenceable(8) %call10, ptr noundef nonnull @.str.2)
  %second = getelementptr inbounds i8, ptr %it.sroa.0.08, i64 32
  call void @llvm.lifetime.start.p0(i64 32, ptr nonnull %ref.tmp.i)
  %7 = load ptr, ptr %this, align 8
  call void @_ZN19OpenColorIO_v2_4dev28ConvertSpecialCharToXmlTokenERKNSt7__cxx1112basic_stringIcSt11char_traitsIcESaIcEEE(ptr nonnull sret(%"class.std::__cxx11::basic_string") align 8 %ref.tmp.i, ptr noundef nonnull align 8 dereferenceable(32) %second)
  %call.i3 = invoke noundef nonnull align 8 dereferenceable(8) ptr @_ZStlsIcSt11char_traitsIcESaIcEERSt13basic_ostreamIT_T0_ES7_RKNSt7__cxx1112basic_stringIS4_S5_T1_EE(ptr noundef nonnull align 8 dereferenceable(8) %7, ptr noundef nonnull align 8 dereferenceable(32) %ref.tmp.i)
          to label %_ZN19OpenColorIO_v2_4dev12XmlFormatter11writeStringERKNSt7__cxx1112basic_stringIcSt11char_traitsIcESaIcEEE.exit unwind label %lpad.i

lpad.i:                                           ; preds = %for.body
  %8 = landingpad { ptr, i32 }
          cleanup
  call void @_ZNSt7__cxx1112basic_stringIcSt11char_traitsIcESaIcEED1Ev(ptr noundef nonnull align 8 dereferenceable(32) %ref.tmp.i) #14
  resume { ptr, i32 } %8

_ZN19OpenColorIO_v2_4dev12XmlFormatter11writeStringERKNSt7__cxx1112basic_stringIcSt11char_traitsIcESaIcEEE.exit: ; preds = %for.body
  call void @_ZNSt7__cxx1112basic_stringIcSt11char_traitsIcESaIcEED1Ev(ptr noundef nonnull align 8 dereferenceable(32) %ref.tmp.i) #14
  call void @llvm.lifetime.end.p0(i64 32, ptr nonnull %ref.tmp.i)
  %9 = load ptr, ptr %this, align 8
  %call14 = call noundef nonnull align 8 dereferenceable(8) ptr @_ZStlsISt11char_traitsIcEERSt13basic_ostreamIcT_ES5_PKc(ptr noundef nonnull align 8 dereferenceable(8) %9, ptr noundef nonnull @.str.3)
  %incdec.ptr.i = getelementptr inbounds i8, ptr %it.sroa.0.08, i64 64
  %10 = load ptr, ptr %_M_finish.i, align 8
  %cmp.i2.not = icmp eq ptr %incdec.ptr.i, %10
  br i1 %cmp.i2.not, label %for.end, label %for.body, !llvm.loop !9

for.end:                                          ; preds = %_ZN19OpenColorIO_v2_4dev12XmlFormatter11writeStringERKNSt7__cxx1112basic_stringIcSt11char_traitsIcESaIcEEE.exit, %_ZN19OpenColorIO_v2_4dev12XmlFormatter11writeIndentEv.exit
  %11 = load ptr, ptr %this, align 8
  %call18 = call noundef nonnull align 8 dereferenceable(8) ptr @_ZStlsISt11char_traitsIcEERSt13basic_ostreamIcT_ES5_PKc(ptr noundef nonnull align 8 dereferenceable(8) %11, ptr noundef nonnull @.str.8)
  ret void
}